target datalayout = "e-m:e-p270:32:32-p271:32:32-p272:64:64-i64:64-i128:128-f80:128-n8:16:32:64-S128"
target triple = "x86_64-pc-linux-gnu"

%struct.___itt_global = type { [8 x i8], i64, i64, i64, i64, i64, i64, %union.pthread_mutex_t, ptr, ptr, ptr, ptr, ptr, ptr, ptr, ptr, i32, ptr, i32, ptr, ptr }
%union.pthread_mutex_t = type { %struct.__pthread_mutex_s }
%struct.__pthread_mutex_s = type { i32, i32, i32, i32, i32, i16, i16, %struct.__pthread_internal_list }
%struct.__pthread_internal_list = type { ptr, ptr }

@__itt_state_get_ptr__3_0 = global ptr @_ZL24__itt_state_get_init_3_0v, align 8

; Function Attrs: mustprogress sspstrong uwtable
define internal noundef i32 @_ZL24__itt_state_get_init_3_0v() #0 {
  %1 = alloca i32, align 4
  %2 = load volatile i64, ptr getelementptr inbounds nuw (%struct.___itt_global, ptr @__itt__ittapi_global, i32 0, i32 4), align 8, !tbaa !3
  %3 = icmp ne i64 %2, 0
  br i1 %3, label %8, label %4

4:                                                ; preds = %0
  %5 = load ptr, ptr getelementptr inbounds nuw (%struct.___itt_global, ptr @__itt__ittapi_global, i32 0, i32 13), align 8, !tbaa !21
  %6 = icmp eq ptr %5, null
  br i1 %6, label %7, label %8

7:                                                ; preds = %4
  call void @ITT_DoOneTimeInitialization()
  br label %8

8:                                                ; preds = %7, %4, %0
  %9 = load ptr, ptr @__itt_state_get_ptr__3_0, align 8, !tbaa !22
  %10 = icmp ne ptr %9, null
  br i1 %10, label %11, label %17

11:                                               ; preds = %8
  %12 = load ptr, ptr @__itt_state_get_ptr__3_0, align 8, !tbaa !22
  %13 = icmp ne ptr %12, @_ZL24__itt_state_get_init_3_0v
  br i1 %13, label %14, label %17

14:                                               ; preds = %11
  %15 = load ptr, ptr @__itt_state_get_ptr__3_0, align 8, !tbaa !22
  %16 = call i32 %15()
  store i32 %16, ptr %1, align 4
  br label %18

17:                                               ; preds = %11, %8
  store i32 0, ptr %1, align 4
  br label %18

18:                                               ; preds = %17, %14
  %19 = load i32, ptr %1, align 4
  ret i32 %19
}