; Function Attrs: mustprogress sspstrong uwtable
define internal noundef i32 @_ZL24__itt_state_get_init_3_0v() #0 {
  %1 = load volatile i64, ptr getelementptr inbounds nuw (i8, ptr @__itt__ittapi_global, i64 32), align 8, !tbaa !3
  %2 = icmp eq i64 %1, 0
  %3 = load ptr, ptr getelementptr inbounds nuw (i8, ptr @__itt__ittapi_global, i64 136), align 8
  %4 = icmp eq ptr %3, null
  %or.cond = select i1 %2, i1 %4, i1 false
  br i1 %or.cond, label %5, label %6

5:                                                ; preds = %0
  tail call void @ITT_DoOneTimeInitialization()
  br label %6

6:                                                ; preds = %5, %0
  %7 = load ptr, ptr @__itt_state_get_ptr__3_0, align 8, !tbaa !21
  %8 = icmp ne ptr %7, null
  %9 = icmp ne ptr %7, @_ZL24__itt_state_get_init_3_0v
  %or.cond3 = and i1 %8, %9
  br i1 %or.cond3, label %10, label %12

10:                                               ; preds = %6
  %11 = tail call i32 %7()
  br label %12

12:                                               ; preds = %6, %10
  %.0 = phi i32 [ %11, %10 ], [ 0, %6 ]
  ret i32 %.0
}